; Function Attrs: mustprogress uwtable
define dso_local void @_ZN4Luau7CodeGen3A6418AssemblyBuilderA643adrENS1_11RegisterA64EPKvm(ptr noundef nonnull align 8 dereferenceable(176) %0, i8 %1, ptr noundef readonly captures(none) %2, i64 noundef %3) local_unnamed_addr #0 align 2 {
  %5 = getelementptr inbounds nuw i8, ptr %0, i64 152
  %6 = load i64, ptr %5, align 8, !tbaa !36
  %7 = icmp ult i64 %6, %3
  br i1 %7, label %8, label %_ZN4Luau7CodeGen3A6418AssemblyBuilderA6412allocateDataEmm.exit

8:                                                ; preds = %4
  %9 = getelementptr inbounds nuw i8, ptr %0, i64 8
  %10 = load ptr, ptr %9, align 8, !tbaa !34
  %11 = load ptr, ptr %0, align 8, !tbaa !35
  %12 = ptrtoint ptr %10 to i64
  %13 = ptrtoint ptr %11 to i64
  %14 = sub i64 %12, %13
  %15 = shl i64 %14, 1
  tail call void @_ZNSt6vectorIhSaIhEE6resizeEm(ptr noundef nonnull align 8 dereferenceable(176) %0, i64 noundef %15)
  %16 = load ptr, ptr %0, align 8, !tbaa !35
  %17 = getelementptr inbounds nuw i8, ptr %16, i64 %14
  tail call void @llvm.memcpy.p0.p0.i64(ptr nonnull align 1 %17, ptr nonnull align 1 %16, i64 %14, i1 false)
  %18 = load ptr, ptr %0, align 8, !tbaa !35
  tail call void @llvm.memset.p0.i64(ptr nonnull align 1 %18, i8 0, i64 %14, i1 false)
  %19 = load i64, ptr %5, align 8, !tbaa !36
  %20 = add i64 %19, %14
  br label %_ZN4Luau7CodeGen3A6418AssemblyBuilderA6412allocateDataEmm.exit

_ZN4Luau7CodeGen3A6418AssemblyBuilderA6412allocateDataEmm.exit: ; preds = %4, %8
  %21 = phi i64 [ %20, %8 ], [ %6, %4 ]
  %22 = sub i64 %21, %3
  %23 = and i64 %22, -4
  store i64 %23, ptr %5, align 8, !tbaa !36
  %24 = getelementptr inbounds nuw i8, ptr %0, i64 160
  %25 = load ptr, ptr %24, align 8, !tbaa !39
  %26 = getelementptr inbounds nuw i8, ptr %0, i64 24
  %27 = load ptr, ptr %26, align 8, !tbaa !38
  %28 = ptrtoint ptr %25 to i64
  %29 = ptrtoint ptr %27 to i64
  %30 = sub i64 %28, %29
  %31 = lshr exact i64 %30, 2
  %32 = trunc i64 %31 to i32
  %33 = load ptr, ptr %0, align 8, !tbaa !35
  %34 = getelementptr inbounds nuw i8, ptr %33, i64 %23
  tail call void @llvm.memcpy.p0.p0.i64(ptr nonnull align 1 %34, ptr align 1 %2, i64 %3, i1 false)
  %35 = getelementptr inbounds nuw i8, ptr %0, i64 80
  %36 = load i8, ptr %35, align 8, !tbaa !14, !range !46, !noundef !47
  %37 = trunc nuw i8 %36 to i1
  br i1 %37, label %38, label %39

38:                                               ; preds = %_ZN4Luau7CodeGen3A6418AssemblyBuilderA6412allocateDataEmm.exit
  tail call void @_ZN4Luau7CodeGen3A6418AssemblyBuilderA643logEPKcNS1_11RegisterA64E(ptr noundef nonnull align 8 dereferenceable(176) %0, ptr noundef nonnull @.str.47, i8 %1)
  br label %39

39:                                               ; preds = %38, %_ZN4Luau7CodeGen3A6418AssemblyBuilderA6412allocateDataEmm.exit
  %40 = lshr i8 %1, 3
  %41 = zext nneg i8 %40 to i32
  %42 = or disjoint i32 %41, 268435456
  %43 = load ptr, ptr %24, align 8, !tbaa !39
  %44 = getelementptr inbounds nuw i8, ptr %43, i64 4
  store ptr %44, ptr %24, align 8, !tbaa !39
  store i32 %42, ptr %43, align 4, !tbaa !48
  %45 = getelementptr inbounds nuw i8, ptr %0, i64 168
  %46 = load ptr, ptr %45, align 8, !tbaa !40
  %47 = icmp eq ptr %46, %44
  br i1 %47, label %48, label %_ZN4Luau7CodeGen3A6418AssemblyBuilderA648placeADREPKcNS1_11RegisterA64Eh.exit

48:                                               ; preds = %39
  tail call void @_ZN4Luau7CodeGen3A6418AssemblyBuilderA646extendEv(ptr noundef nonnull align 8 dereferenceable(176) %0)
  br label %_ZN4Luau7CodeGen3A6418AssemblyBuilderA648placeADREPKcNS1_11RegisterA64Eh.exit

_ZN4Luau7CodeGen3A6418AssemblyBuilderA648placeADREPKcNS1_11RegisterA64Eh.exit: ; preds = %39, %48
  %49 = getelementptr inbounds nuw i8, ptr %0, i64 8
  %50 = load ptr, ptr %49, align 8, !tbaa !34
  %51 = load ptr, ptr %0, align 8, !tbaa !35
  %52 = ptrtoint ptr %50 to i64
  %53 = ptrtoint ptr %51 to i64
  %54 = add i64 %23, %53
  %55 = sub i64 %52, %54
  %56 = lshr i64 %55, 2
  %57 = trunc i64 %56 to i32
  %58 = add i32 %57, %32
  %59 = add i32 %58, 262143
  %or.cond.i = icmp ult i32 %59, 524287
  br i1 %or.cond.i, label %60, label %67

60:                                               ; preds = %_ZN4Luau7CodeGen3A6418AssemblyBuilderA648placeADREPKcNS1_11RegisterA64Eh.exit
  %.neg = mul i32 %58, 16777184
  %61 = and i32 %.neg, 16777184
  %62 = and i64 %31, 4294967295
  %63 = load ptr, ptr %26, align 8, !tbaa !38
  %64 = getelementptr inbounds nuw i32, ptr %63, i64 %62
  %65 = load i32, ptr %64, align 4, !tbaa !48
  %66 = or i32 %65, %61
  store i32 %66, ptr %64, align 4, !tbaa !48
  br label %_ZN4Luau7CodeGen3A6418AssemblyBuilderA6411patchOffsetEjiNS2_5Patch4KindE.exit

67:                                               ; preds = %_ZN4Luau7CodeGen3A6418AssemblyBuilderA648placeADREPKcNS1_11RegisterA64Eh.exit
  %68 = getelementptr inbounds nuw i8, ptr %0, i64 145
  store i8 1, ptr %68, align 1, !tbaa !50
  br label %_ZN4Luau7CodeGen3A6418AssemblyBuilderA6411patchOffsetEjiNS2_5Patch4KindE.exit

_ZN4Luau7CodeGen3A6418AssemblyBuilderA6411patchOffsetEjiNS2_5Patch4KindE.exit: ; preds = %60, %67
  ret void
}